; Function Attrs: nounwind uwtable
define dso_local void @PredicateLockPageSplit(ptr noundef readonly captures(none) %0, i32 noundef %1, i32 noundef %2) local_unnamed_addr #0 {
  %4 = load ptr, ptr @PredXact, align 8
  %5 = getelementptr inbounds nuw i8, ptr %4, i64 32
  %6 = load i32, ptr %5, align 8
  %.not = icmp eq i32 %6, 0
  br i1 %.not, label %PredicateLockingNeededForRelation.exit.thread, label %7

7:                                                ; preds = %3
  %8 = getelementptr inbounds nuw i8, ptr %0, i64 72
  %9 = load i32, ptr %8, align 8
  %10 = icmp ult i32 %9, 12000
  br i1 %10, label %PredicateLockingNeededForRelation.exit.thread, label %PredicateLockingNeededForRelation.exit

PredicateLockingNeededForRelation.exit:           ; preds = %7
  %11 = getelementptr inbounds nuw i8, ptr %0, i64 56
  %12 = load ptr, ptr %11, align 8
  %13 = getelementptr inbounds nuw i8, ptr %12, i64 114
  %14 = load i8, ptr %13, align 2
  %.not47 = icmp eq i8 %14, 116
  br i1 %.not47, label %PredicateLockingNeededForRelation.exit.thread, label %15

15:                                               ; preds = %PredicateLockingNeededForRelation.exit
  %16 = getelementptr inbounds nuw i8, ptr %0, i64 4
  %17 = load i32, ptr %16, align 4
  %.sroa.034.0.insert.ext = zext i32 %17 to i64
  %.sroa.034.4.insert.ext = zext i32 %9 to i64
  %.sroa.034.4.insert.shift = shl nuw i64 %.sroa.034.4.insert.ext, 32
  %.sroa.034.4.insert.insert = or disjoint i64 %.sroa.034.4.insert.shift, %.sroa.034.0.insert.ext
  %.sroa.1042.8.insert.ext = zext i32 %1 to i64
  %.sroa.10.8.insert.ext = zext i32 %2 to i64
  %18 = load ptr, ptr @MainLWLockArray, align 8
  %19 = getelementptr inbounds nuw i8, ptr %18, i64 3840
  %20 = tail call zeroext i1 @LWLockAcquire(ptr noundef nonnull %19, i32 noundef 0) #12
  %21 = tail call fastcc zeroext i1 @TransferPredicateLocksToNewTarget(i64 %.sroa.034.4.insert.insert, i64 %.sroa.1042.8.insert.ext, i64 %.sroa.034.4.insert.insert, i64 %.sroa.10.8.insert.ext, i1 noundef zeroext false)
  br i1 %21, label %23, label %GetParentPredicateLockTag.exit

GetParentPredicateLockTag.exit:                   ; preds = %15
  %.not16.not.i = icmp eq i32 %1, -1
  %.sroa.10.0 = select i1 %.not16.not.i, i64 %.sroa.10.8.insert.ext, i64 4294967295
  %22 = tail call fastcc zeroext i1 @TransferPredicateLocksToNewTarget(i64 %.sroa.034.4.insert.insert, i64 %.sroa.1042.8.insert.ext, i64 %.sroa.034.4.insert.insert, i64 %.sroa.10.0, i1 noundef zeroext true)
  br label %23

23:                                               ; preds = %GetParentPredicateLockTag.exit, %15
  %24 = load ptr, ptr @MainLWLockArray, align 8
  %25 = getelementptr inbounds nuw i8, ptr %24, i64 3840
  tail call void @LWLockRelease(ptr noundef nonnull %25) #12
  br label %PredicateLockingNeededForRelation.exit.thread

PredicateLockingNeededForRelation.exit.thread:    ; preds = %7, %PredicateLockingNeededForRelation.exit, %3, %23
  ret void
}